target datalayout = "e-m:e-p270:32:32-p271:32:32-p272:64:64-i64:64-i128:128-f80:128-n8:16:32:64-S128"
target triple = "x86_64-pc-linux-gnu"

; Function Attrs: inlinehint nounwind uwtable
define internal i32 @constant_time_msb(i32 noundef %0) #2 {
  %2 = alloca i32, align 4
  store i32 %0, ptr %2, align 4, !tbaa !8
  %3 = load i32, ptr %2, align 4, !tbaa !8
  %4 = lshr i32 %3, 31
  %5 = sub i32 0, %4
  ret i32 %5
}

; Function Attrs: inlinehint nounwind uwtable
define internal i32 @constant_time_eq(i32 noundef %0, i32 noundef %1) #2 {
  %3 = alloca i32, align 4
  %4 = alloca i32, align 4
  store i32 %0, ptr %3, align 4, !tbaa !8
  store i32 %1, ptr %4, align 4, !tbaa !8
  %5 = load i32, ptr %3, align 4, !tbaa !8
  %6 = load i32, ptr %4, align 4, !tbaa !8
  %7 = xor i32 %5, %6
  %8 = call i32 @constant_time_is_zero(i32 noundef %7)
  ret i32 %8
}

; Function Attrs: inlinehint nounwind uwtable
define internal i32 @constant_time_is_zero(i32 noundef %0) #2 {
  %2 = alloca i32, align 4
  store i32 %0, ptr %2, align 4, !tbaa !8
  %3 = load i32, ptr %2, align 4, !tbaa !8
  %4 = xor i32 %3, -1
  %5 = load i32, ptr %2, align 4, !tbaa !8
  %6 = sub i32 %5, 1
  %7 = and i32 %4, %6
  %8 = call i32 @constant_time_msb(i32 noundef %7)
  ret i32 %8
}

; Function Attrs: inlinehint nounwind uwtable
define internal zeroext i8 @constant_time_eq_8(i32 noundef %0, i32 noundef %1) #2 {
  %3 = alloca i32, align 4
  %4 = alloca i32, align 4
  store i32 %0, ptr %3, align 4, !tbaa !8
  store i32 %1, ptr %4, align 4, !tbaa !8
  %5 = load i32, ptr %3, align 4, !tbaa !8
  %6 = load i32, ptr %4, align 4, !tbaa !8
  %7 = call i32 @constant_time_eq(i32 noundef %5, i32 noundef %6)
  %8 = trunc i32 %7 to i8
  ret i8 %8
}

; Function Attrs: nounwind uwtable
define i32 @DES_is_weak_key(ptr noundef %0) #0 {
  %2 = alloca ptr, align 8
  %3 = alloca i32, align 4
  %4 = alloca i32, align 4
  %5 = alloca i32, align 4
  store ptr %0, ptr %2, align 8, !tbaa !3
  call void @llvm.lifetime.start.p0(i64 4, ptr %3) #4
  call void @llvm.lifetime.start.p0(i64 4, ptr %4) #4
  store i32 0, ptr %4, align 4, !tbaa !8
  call void @llvm.lifetime.start.p0(i64 4, ptr %5) #4
  store i32 0, ptr %3, align 4, !tbaa !8
  br label %6

6:                                                ; preds = %21, %1
  %7 = load i32, ptr %3, align 4, !tbaa !8
  %8 = zext i32 %7 to i64
  %9 = icmp ult i64 %8, 16
  br i1 %9, label %10, label %24

10:                                               ; preds = %6
  %11 = load i32, ptr %3, align 4, !tbaa !8
  %12 = zext i32 %11 to i64
  %13 = getelementptr inbounds nuw [16 x [8 x i8]], ptr @weak_keys, i64 0, i64 %12
  %14 = getelementptr inbounds [8 x i8], ptr %13, i64 0, i64 0
  %15 = load ptr, ptr %2, align 8, !tbaa !3
  %16 = call i32 @CRYPTO_memcmp(ptr noundef %14, ptr noundef %15, i64 noundef 8)
  store i32 %16, ptr %5, align 4, !tbaa !8
  %17 = load i32, ptr %5, align 4, !tbaa !8
  %18 = call i32 @constant_time_is_zero(i32 noundef %17)
  %19 = load i32, ptr %4, align 4, !tbaa !8
  %20 = or i32 %19, %18
  store i32 %20, ptr %4, align 4, !tbaa !8
  br label %21

21:                                               ; preds = %10
  %22 = load i32, ptr %3, align 4, !tbaa !8
  %23 = add i32 %22, 1
  store i32 %23, ptr %3, align 4, !tbaa !8
  br label %6, !llvm.loop !14

24:                                               ; preds = %6
  %25 = load i32, ptr %4, align 4, !tbaa !8
  %26 = and i32 %25, 1
  call void @llvm.lifetime.end.p0(i64 4, ptr %5) #4
  call void @llvm.lifetime.end.p0(i64 4, ptr %4) #4
  call void @llvm.lifetime.end.p0(i64 4, ptr %3) #4
  ret i32 %26
}

; Function Attrs: nounwind uwtable
define i32 @DES_check_key_parity(ptr noundef %0) #0 {
  %2 = alloca ptr, align 8
  %3 = alloca i32, align 4
  %4 = alloca i8, align 1
  %5 = alloca i8, align 1
  store ptr %0, ptr %2, align 8, !tbaa !3
  call void @llvm.lifetime.start.p0(i64 4, ptr %3) #4
  call void @llvm.lifetime.start.p0(i64 1, ptr %4) #4
  store i8 -1, ptr %4, align 1, !tbaa !10
  call void @llvm.lifetime.start.p0(i64 1, ptr %5) #4
  store i32 0, ptr %3, align 4, !tbaa !8
  br label %6

6:                                                ; preds = %46, %1
  %7 = load i32, ptr %3, align 4, !tbaa !8
  %8 = zext i32 %7 to i64
  %9 = icmp ult i64 %8, 8
  br i1 %9, label %10, label %49

10:                                               ; preds = %6
  %11 = load ptr, ptr %2, align 8, !tbaa !3
  %12 = load i32, ptr %3, align 4, !tbaa !8
  %13 = zext i32 %12 to i64
  %14 = getelementptr inbounds nuw [8 x i8], ptr %11, i64 0, i64 %13
  %15 = load i8, ptr %14, align 1, !tbaa !10
  store i8 %15, ptr %5, align 1, !tbaa !10
  %16 = load i8, ptr %5, align 1, !tbaa !10
  %17 = zext i8 %16 to i32
  %18 = ashr i32 %17, 4
  %19 = load i8, ptr %5, align 1, !tbaa !10
  %20 = zext i8 %19 to i32
  %21 = xor i32 %20, %18
  %22 = trunc i32 %21 to i8
  store i8 %22, ptr %5, align 1, !tbaa !10
  %23 = load i8, ptr %5, align 1, !tbaa !10
  %24 = zext i8 %23 to i32
  %25 = ashr i32 %24, 2
  %26 = load i8, ptr %5, align 1, !tbaa !10
  %27 = zext i8 %26 to i32
  %28 = xor i32 %27, %25
  %29 = trunc i32 %28 to i8
  store i8 %29, ptr %5, align 1, !tbaa !10
  %30 = load i8, ptr %5, align 1, !tbaa !10
  %31 = zext i8 %30 to i32
  %32 = ashr i32 %31, 1
  %33 = load i8, ptr %5, align 1, !tbaa !10
  %34 = zext i8 %33 to i32
  %35 = xor i32 %34, %32
  %36 = trunc i32 %35 to i8
  store i8 %36, ptr %5, align 1, !tbaa !10
  %37 = load i8, ptr %5, align 1, !tbaa !10
  %38 = zext i8 %37 to i32
  %39 = and i32 %38, 1
  %40 = call zeroext i8 @constant_time_eq_8(i32 noundef %39, i32 noundef 1)
  %41 = zext i8 %40 to i32
  %42 = load i8, ptr %4, align 1, !tbaa !10
  %43 = zext i8 %42 to i32
  %44 = and i32 %43, %41
  %45 = trunc i32 %44 to i8
  store i8 %45, ptr %4, align 1, !tbaa !10
  br label %46

46:                                               ; preds = %10
  %47 = load i32, ptr %3, align 4, !tbaa !8
  %48 = add i32 %47, 1
  store i32 %48, ptr %3, align 4, !tbaa !8
  br label %6, !llvm.loop !13

49:                                               ; preds = %6
  %50 = load i8, ptr %4, align 1, !tbaa !10
  %51 = zext i8 %50 to i32
  %52 = and i32 %51, 1
  call void @llvm.lifetime.end.p0(i64 1, ptr %5) #4
  call void @llvm.lifetime.end.p0(i64 1, ptr %4) #4
  call void @llvm.lifetime.end.p0(i64 4, ptr %3) #4
  ret i32 %52
}

; Function Attrs: nounwind uwtable
define i32 @DES_set_key_checked(ptr noundef %0, ptr noundef %1) #0 {
  %3 = alloca i32, align 4
  %4 = alloca ptr, align 8
  %5 = alloca ptr, align 8
  store ptr %0, ptr %4, align 8, !tbaa !3
  store ptr %1, ptr %5, align 8, !tbaa !15
  %6 = load ptr, ptr %4, align 8, !tbaa !3
  %7 = call i32 @DES_check_key_parity(ptr noundef %6)
  %8 = icmp ne i32 %7, 0
  br i1 %8, label %10, label %9

9:                                                ; preds = %2
  store i32 -1, ptr %3, align 4
  br label %18

10:                                               ; preds = %2
  %11 = load ptr, ptr %4, align 8, !tbaa !3
  %12 = call i32 @DES_is_weak_key(ptr noundef %11)
  %13 = icmp ne i32 %12, 0
  br i1 %13, label %14, label %15

14:                                               ; preds = %10
  store i32 -2, ptr %3, align 4
  br label %18

15:                                               ; preds = %10
  %16 = load ptr, ptr %4, align 8, !tbaa !3
  %17 = load ptr, ptr %5, align 8, !tbaa !15
  call void @DES_set_key_unchecked(ptr noundef %16, ptr noundef %17)
  store i32 0, ptr %3, align 4
  br label %18

18:                                               ; preds = %15, %14, %9
  %19 = load i32, ptr %3, align 4
  ret i32 %19
}