; Function Attrs: nounwind uwtable
define range(i32 -2, 1) i32 @DES_set_key_checked(ptr noundef %0, ptr noundef writeonly captures(none) %1) local_unnamed_addr #2 {
  br label %3

3:                                                ; preds = %3, %2
  %indvars.iv.i = phi i64 [ 0, %2 ], [ %indvars.iv.next.i, %3 ]
  %.01214.i = phi i8 [ -1, %2 ], [ %14, %3 ]
  %4 = getelementptr inbounds nuw [8 x i8], ptr %0, i64 0, i64 %indvars.iv.i
  %5 = load i8, ptr %4, align 1, !tbaa !3
  %6 = lshr i8 %5, 4
  %7 = xor i8 %6, %5
  %8 = lshr i8 %7, 2
  %9 = xor i8 %8, %7
  %10 = lshr i8 %9, 1
  %11 = xor i8 %10, %9
  %12 = and i8 %11, 1
  %13 = icmp eq i8 %12, 0
  %14 = select i1 %13, i8 0, i8 %.01214.i
  %indvars.iv.next.i = add nuw nsw i64 %indvars.iv.i, 1
  %exitcond.not.i = icmp eq i64 %indvars.iv.next.i, 8
  br i1 %exitcond.not.i, label %DES_check_key_parity.exit, label %3, !llvm.loop !8

DES_check_key_parity.exit:                        ; preds = %3
  %15 = and i8 %14, 1
  %.not = icmp eq i8 %15, 0
  br i1 %.not, label %22, label %.preheader

.preheader:                                       ; preds = %DES_check_key_parity.exit, %.preheader
  %indvars.iv.i5 = phi i64 [ %indvars.iv.next.i6, %.preheader ], [ 0, %DES_check_key_parity.exit ]
  %.068.i = phi i32 [ %19, %.preheader ], [ 0, %DES_check_key_parity.exit ]
  %16 = getelementptr inbounds nuw [16 x [8 x i8]], ptr @weak_keys, i64 0, i64 %indvars.iv.i5
  %17 = tail call i32 @CRYPTO_memcmp(ptr noundef nonnull %16, ptr noundef %0, i64 noundef 8) #5
  %18 = icmp eq i32 %17, 0
  %19 = select i1 %18, i32 -1, i32 %.068.i
  %indvars.iv.next.i6 = add nuw nsw i64 %indvars.iv.i5, 1
  %exitcond.not.i7 = icmp eq i64 %indvars.iv.next.i6, 16
  br i1 %exitcond.not.i7, label %DES_is_weak_key.exit, label %.preheader, !llvm.loop !9

DES_is_weak_key.exit:                             ; preds = %.preheader
  %20 = and i32 %19, 1
  %.not4 = icmp eq i32 %20, 0
  br i1 %.not4, label %21, label %22

21:                                               ; preds = %DES_is_weak_key.exit
  tail call void @DES_set_key_unchecked(ptr noundef %0, ptr noundef %1)
  br label %22

22:                                               ; preds = %DES_is_weak_key.exit, %DES_check_key_parity.exit, %21
  %.0 = phi i32 [ 0, %21 ], [ -1, %DES_check_key_parity.exit ], [ -2, %DES_is_weak_key.exit ]
  ret i32 %.0
}